; Function Attrs: null_pointer_is_valid sspstrong uwtable
define internal i32 @irda_addr_to_str(ptr noundef readonly captures(none) %0, ptr noundef %1, i32 noundef %2) #0 {
  %4 = getelementptr inbounds nuw i8, ptr %0, i64 8
  %5 = load ptr, ptr %4, align 8
  %6 = load i8, ptr %5, align 1
  %7 = zext i8 %6 to i32
  %8 = sext i32 %2 to i64
  tail call void @uint32_to_str_buf(i32 noundef %7, ptr noundef %1, i64 noundef %8)
  %9 = tail call i64 @strlen(ptr noundef %1) #9
  %10 = trunc i64 %9 to i32
  ret i32 %10
}